; Function Attrs: nounwind uwtable
define zeroext i8 @l_Lean_Elab_Command_NameGen_mkBaseNameWithSuffix___lambda__1(ptr noundef %0) local_unnamed_addr #1 {
  %2 = ptrtoint ptr %0 to i64
  %3 = and i64 %2, 1
  %.not.i = icmp eq i64 %3, 0
  br i1 %.not.i, label %7, label %4

4:                                                ; preds = %1
  %5 = lshr i64 %2, 1
  %6 = trunc i64 %5 to i32
  br label %lean_obj_tag.exit

7:                                                ; preds = %1
  %8 = getelementptr i8, ptr %0, i64 4
  %.val.i = load i32, ptr %8, align 4
  %9 = lshr i32 %.val.i, 24
  br label %lean_obj_tag.exit

lean_obj_tag.exit:                                ; preds = %4, %7
  %.0.i = phi i32 [ %6, %4 ], [ %9, %7 ]
  %10 = icmp eq i32 %.0.i, 4
  br i1 %10, label %11, label %15

11:                                               ; preds = %lean_obj_tag.exit
  %12 = getelementptr inbounds nuw i8, ptr %0, i64 8
  %13 = load ptr, ptr %12, align 8, !tbaa !9
  %14 = tail call zeroext i8 @l_Lean_Name_hasMacroScopes(ptr noundef %13) #4
  br label %15

15:                                               ; preds = %lean_obj_tag.exit, %11
  %.0 = phi i8 [ %14, %11 ], [ 0, %lean_obj_tag.exit ]
  ret i8 %.0
}